target datalayout = "e-m:e-p270:32:32-p271:32:32-p272:64:64-i64:64-i128:128-f80:128-n8:16:32:64-S128"
target triple = "x86_64-pc-linux-gnu"

%"class.cv::Rect_.4" = type { double, double, double, double }

@.str.14 = private unnamed_addr constant [7 x i8] c"(dddd)\00", align 1

; Function Attrs: mustprogress uwtable
define hidden noundef ptr @_Z13pyopencv_fromIN2cv5Rect_IdEEEP7_objectRKT_(ptr noundef nonnull align 8 dereferenceable(32) %0) #4 {
  %2 = alloca ptr, align 8
  store ptr %0, ptr %2, align 8
  %3 = load ptr, ptr %2, align 8
  %4 = getelementptr inbounds %"class.cv::Rect_.4", ptr %3, i32 0, i32 0
  %5 = load double, ptr %4, align 8
  %6 = load ptr, ptr %2, align 8
  %7 = getelementptr inbounds %"class.cv::Rect_.4", ptr %6, i32 0, i32 1
  %8 = load double, ptr %7, align 8
  %9 = load ptr, ptr %2, align 8
  %10 = getelementptr inbounds %"class.cv::Rect_.4", ptr %9, i32 0, i32 2
  %11 = load double, ptr %10, align 8
  %12 = load ptr, ptr %2, align 8
  %13 = getelementptr inbounds %"class.cv::Rect_.4", ptr %12, i32 0, i32 3
  %14 = load double, ptr %13, align 8
  %15 = call ptr (ptr, ...) @Py_BuildValue(ptr noundef @.str.14, double noundef %5, double noundef %8, double noundef %11, double noundef %14)
  ret ptr %15
}